; Function Attrs: nounwind uwtable
define noundef ptr @Llb_Nonlin4ComputeInitState(ptr noundef %0, ptr noundef readonly captures(none) %1, ptr noundef readonly captures(none) %2, i32 noundef %3) local_unnamed_addr #0 {
  %5 = getelementptr inbounds nuw i8, ptr %0, i64 752
  %6 = load i64, ptr %5, align 8, !tbaa !70
  store i64 0, ptr %5, align 8, !tbaa !70
  %7 = tail call ptr @Cudd_ReadOne(ptr noundef %0) #18
  tail call void @Cudd_Ref(ptr noundef %7) #18
  %8 = getelementptr i8, ptr %1, i64 104
  %.val2732 = load i32, ptr %8, align 8, !tbaa !45
  %9 = icmp sgt i32 %.val2732, 0
  br i1 %9, label %.lr.ph, label %.critedge

.lr.ph:                                           ; preds = %4
  %10 = getelementptr i8, ptr %1, i64 24
  %11 = getelementptr i8, ptr %1, i64 112
  %12 = getelementptr i8, ptr %1, i64 16
  %13 = getelementptr i8, ptr %1, i64 108
  %.not = icmp eq i32 %3, 0
  %14 = getelementptr i8, ptr %2, i64 8
  br i1 %.not, label %.lr.ph.split.us, label %.lr.ph.split

.lr.ph.split.us:                                  ; preds = %.lr.ph, %.lr.ph.split.us
  %.034.us = phi ptr [ %28, %.lr.ph.split.us ], [ %7, %.lr.ph ]
  %.02533.us = phi i32 [ %29, %.lr.ph.split.us ], [ 0, %.lr.ph ]
  %.val30.us = load ptr, ptr %12, align 8, !tbaa !22
  %.val31.us = load i32, ptr %13, align 4, !tbaa !41
  %15 = getelementptr i8, ptr %.val30.us, i64 8
  %.val30.val.us = load ptr, ptr %15, align 8, !tbaa !25
  %16 = add nsw i32 %.val31.us, %.02533.us
  %17 = sext i32 %16 to i64
  %18 = getelementptr inbounds ptr, ptr %.val30.val.us, i64 %17
  %19 = load ptr, ptr %18, align 8, !tbaa !26
  %.val.us = load ptr, ptr %14, align 8, !tbaa !27
  %20 = getelementptr i8, ptr %19, i64 36
  %.val26.us = load i32, ptr %20, align 4, !tbaa !29
  %21 = sext i32 %.val26.us to i64
  %22 = getelementptr inbounds i32, ptr %.val.us, i64 %21
  %23 = load i32, ptr %22, align 4, !tbaa !30
  %24 = tail call ptr @Cudd_bddIthVar(ptr noundef %0, i32 noundef %23) #18
  %25 = ptrtoint ptr %24 to i64
  %26 = xor i64 %25, 1
  %27 = inttoptr i64 %26 to ptr
  %28 = tail call ptr @Cudd_bddAnd(ptr noundef %0, ptr noundef %.034.us, ptr noundef %27) #18
  tail call void @Cudd_Ref(ptr noundef %28) #18
  tail call void @Cudd_RecursiveDeref(ptr noundef %0, ptr noundef %.034.us) #18
  %29 = add nuw nsw i32 %.02533.us, 1
  %.val27.us = load i32, ptr %8, align 8, !tbaa !45
  %30 = icmp slt i32 %29, %.val27.us
  br i1 %30, label %.lr.ph.split.us, label %.critedge, !llvm.loop !83

.lr.ph.split:                                     ; preds = %.lr.ph, %.lr.ph.split
  %.034 = phi ptr [ %44, %.lr.ph.split ], [ %7, %.lr.ph ]
  %.02533 = phi i32 [ %45, %.lr.ph.split ], [ 0, %.lr.ph ]
  %.val28 = load ptr, ptr %10, align 8, !tbaa !33
  %.val29 = load i32, ptr %11, align 8, !tbaa !34
  %31 = getelementptr i8, ptr %.val28, i64 8
  %.val28.val = load ptr, ptr %31, align 8, !tbaa !25
  %32 = add nsw i32 %.val29, %.02533
  %33 = sext i32 %32 to i64
  %34 = getelementptr inbounds ptr, ptr %.val28.val, i64 %33
  %35 = load ptr, ptr %34, align 8, !tbaa !26
  %.val = load ptr, ptr %14, align 8, !tbaa !27
  %36 = getelementptr i8, ptr %35, i64 36
  %.val26 = load i32, ptr %36, align 4, !tbaa !29
  %37 = sext i32 %.val26 to i64
  %38 = getelementptr inbounds i32, ptr %.val, i64 %37
  %39 = load i32, ptr %38, align 4, !tbaa !30
  %40 = tail call ptr @Cudd_bddIthVar(ptr noundef %0, i32 noundef %39) #18
  %41 = ptrtoint ptr %40 to i64
  %42 = xor i64 %41, 1
  %43 = inttoptr i64 %42 to ptr
  %44 = tail call ptr @Cudd_bddAnd(ptr noundef %0, ptr noundef %.034, ptr noundef %43) #18
  tail call void @Cudd_Ref(ptr noundef %44) #18
  tail call void @Cudd_RecursiveDeref(ptr noundef %0, ptr noundef %.034) #18
  %45 = add nuw nsw i32 %.02533, 1
  %.val27 = load i32, ptr %8, align 8, !tbaa !45
  %46 = icmp slt i32 %45, %.val27
  br i1 %46, label %.lr.ph.split, label %.critedge, !llvm.loop !83

.critedge:                                        ; preds = %.lr.ph.split, %.lr.ph.split.us, %4
  %.0.lcssa = phi ptr [ %7, %4 ], [ %28, %.lr.ph.split.us ], [ %44, %.lr.ph.split ]
  tail call void @Cudd_Deref(ptr noundef %.0.lcssa) #18
  store i64 %6, ptr %5, align 8, !tbaa !70
  ret ptr %.0.lcssa
}